
build/program.elf:     file format elf32-littleriscv

Contents of section .text.init:
 0000 17010100 130101fe 97020000 93824201  ..............B.
 0010 73905230 ef00802f 73000000 6f000000  s.R0.../s...o...
Contents of section .text:
 0020 130101fe 232e1100 63880506 8324c100  ....#...c....$..
 0030 93040000 03290101 13090000 83294101  .....).......)A.
 0040 93090000 93890902 032a8101 130a0000  .........*......
 0050 ef004000 9389f9ff 63ca0902 335a3501  ..@.....c...3Z5.
 0060 137a1a00 13191900 33694901 6354b900  .z......3iI.cT..
 0070 eff05ffe 3309b940 136a1000 331a3a01  .._.3..@.j..3.:.
 0080 b3e44401 63c40900 eff0dffc 13850400  ..D.c...........
 0090 93050900 ef004000 8320c101 13010102  ......@.. ......
 00a0 67800000 130101fe 232e1100 eff05ff7  g.......#....._.
 00b0 3305b000 8320c101 13010102 67800000  3.... ......g...
 00c0 732510c0 67800000 130101fe 232e8100  s%..g.......#...
 00d0 13040102 2326a4fe 2324b4fe 0327c4fe  ....#&..#$...'..
 00e0 832784fe b307f700 13850700 0324c101  .'...........$..
 00f0 13010102 67800000 130101fe 232e8100  ....g.......#...
 0100 13040102 2326a4fe 8327c4fe 7390277b  ....#&...'..s.'{
 0110 13000000 0324c101 13010102 67800000  .....$......g...
 0120 130101fe 232e8100 13040102 2326a4fe  ....#.......#&..
 0130 2324b4fe 8327c4fe 13974700 832784fe  #$...'....G..'..
 0140 b307f700 13850700 0324c101 13010102  .........$......
 0150 67800000 130101fe 232e8100 13040102  g.......#.......
 0160 2326a4fe 2324b4fe 8327c4fe 13978700  #&..#$...'......
 0170 832784fe b307f700 13850700 0324c101  .'...........$..
 0180 13010102 67800000 130101fd 23268102  ....g.......#&..
 0190 13040103 232ea4fc b7070004 93870708  ....#...........
 01a0 2326f4fe 8327c4fe 0327c4fd 23a0e700  #&...'...'..#...
 01b0 13000000 0324c102 13010103 67800000  .....$......g...
 01c0 130101fd 23261102 23248102 23229102  ....#&..#$..#"..
 01d0 13040103 232ea4fc 93054006 0325c4fd  ....#.....@..%..
 01e0 eff05fec 2326a4fe 93054006 0325c4fd  .._.#&....@..%..
 01f0 eff01fe3 2324a4fe 9305c003 032584fe  ....#$.......%..
 0200 eff01fe2 2322a4fe 9305c003 032584fe  ....#".......%..
 0210 eff05fe9 2324a4fe 9305a000 032544fe  .._.#$.......%D.
 0220 eff01fe0 93040500 9305a000 032544fe  .............%D.
 0230 eff05fe7 93070500 93850700 13850400  .._.............
 0240 eff01fee 2322a4fe 9305a000 032584fe  ....#".......%..
 0250 eff01fdd 93040500 9305a000 032584fe  .............%..
 0260 eff05fe4 93070500 93850700 13850400  .._.............
 0270 eff01feb 2324a4fe 9305a000 0325c4fe  ....#$.......%..
 0280 eff01fda 93040500 9305a000 0325c4fe  .............%..
 0290 eff05fe1 93070500 93850700 13850400  .._.............
 02a0 eff01fe8 2326a4fe 832584fe 032544fe  ....#&...%...%D.
 02b0 eff05fea 2320a4fe 8325c4fe 032504fe  .._.# ...%...%..
 02c0 eff05fe9 2320a4fe 032544fe eff0dfe2  .._.# ...%D.....
 02d0 032584fe eff05fe2 0325c4fe eff0dfe1  .%...._..%......
 02e0 032504fe eff05fe1 032504fe eff0dfe9  .%...._..%......
 02f0 8327c4fd 13850700 8320c102 03248102  .'....... ...$..
 0300 83244102 13010103 67800000 130101fe  .$A.....g.......
 0310 232e1100 232c8100 13040102 9307c000  #...#,..........
 0320 2326f4fe 93072002 2324f4fe eff05fd9  #&.... .#$...._.
 0330 93070500 9305a000 13850700 eff05fce  .............._.
 0340 2322a4fe 032544fe eff01fdb 032544fe  #"...%D......%D.
 0350 eff01fe7 1305f0ff eff01fda 6ff01ffd  ............o...
Contents of section .comment:
 0000 4743433a 2028474e 55292037 2e312e30  GCC: (GNU) 7.1.0
 0010 00                                   .               

Disassembly of section .text.init:

00000000 <entry>:
   0:	00010117          	auipc	sp,0x10
   4:	fe010113          	addi	sp,sp,-32 # ffe0 <main+0xfcd4>
   8:	00000297          	auipc	t0,0x0
   c:	01428293          	addi	t0,t0,20 # 1c <end>
  10:	30529073          	csrw	mtvec,t0
  14:	2f8000ef          	jal	ra,30c <main>
  18:	00000073          	ecall

0000001c <end>:
  1c:	0000006f          	j	1c <end>

Disassembly of section .text:

00000020 <div>:
  20:	fe010113          	addi	sp,sp,-32
  24:	00112e23          	sw	ra,28(sp)
  28:	06058863          	beqz	a1,98 <exit>
  2c:	00c12483          	lw	s1,12(sp)
  30:	00000493          	li	s1,0
  34:	01012903          	lw	s2,16(sp)
  38:	00000913          	li	s2,0
  3c:	01412983          	lw	s3,20(sp)
  40:	00000993          	li	s3,0
  44:	02098993          	addi	s3,s3,32
  48:	01812a03          	lw	s4,24(sp)
  4c:	00000a13          	li	s4,0
  50:	004000ef          	jal	ra,54 <loop>

00000054 <loop>:
  54:	fff98993          	addi	s3,s3,-1
  58:	0209ca63          	bltz	s3,8c <end>
  5c:	01355a33          	srl	s4,a0,s3
  60:	001a7a13          	andi	s4,s4,1
  64:	00191913          	slli	s2,s2,0x1
  68:	01496933          	or	s2,s2,s4
  6c:	00b95463          	ble	a1,s2,74 <ifblock>
  70:	fe5ff0ef          	jal	ra,54 <loop>

00000074 <ifblock>:
  74:	40b90933          	sub	s2,s2,a1
  78:	00106a13          	ori	s4,zero,1
  7c:	013a1a33          	sll	s4,s4,s3
  80:	0144e4b3          	or	s1,s1,s4
  84:	0009c463          	bltz	s3,8c <end>
  88:	fcdff0ef          	jal	ra,54 <loop>

0000008c <end>:
  8c:	00048513          	mv	a0,s1
  90:	00090593          	mv	a1,s2
  94:	004000ef          	jal	ra,98 <exit>

00000098 <exit>:
  98:	01c12083          	lw	ra,28(sp)
  9c:	02010113          	addi	sp,sp,32
  a0:	00008067          	ret

000000a4 <rem>:
  a4:	fe010113          	addi	sp,sp,-32
  a8:	00112e23          	sw	ra,28(sp)
  ac:	f75ff0ef          	jal	ra,20 <div>
  b0:	00b00533          	add	a0,zero,a1
  b4:	01c12083          	lw	ra,28(sp)
  b8:	02010113          	addi	sp,sp,32
  bc:	00008067          	ret

000000c0 <get_time>:
  c0:	c0102573          	rdtime	a0
  c4:	00008067          	ret

000000c8 <myfunction>:
  c8:	fe010113          	addi	sp,sp,-32
  cc:	00812e23          	sw	s0,28(sp)
  d0:	02010413          	addi	s0,sp,32
  d4:	fea42623          	sw	a0,-20(s0)
  d8:	feb42423          	sw	a1,-24(s0)
  dc:	fec42703          	lw	a4,-20(s0)
  e0:	fe842783          	lw	a5,-24(s0)
  e4:	00f707b3          	add	a5,a4,a5
  e8:	00078513          	mv	a0,a5
  ec:	01c12403          	lw	s0,28(sp)
  f0:	02010113          	addi	sp,sp,32
  f4:	00008067          	ret

000000f8 <dp>:
  f8:	fe010113          	addi	sp,sp,-32
  fc:	00812e23          	sw	s0,28(sp)
 100:	02010413          	addi	s0,sp,32
 104:	fea42623          	sw	a0,-20(s0)
 108:	fec42783          	lw	a5,-20(s0)
 10c:	7b279073          	csrw	dscratch,a5
 110:	00000013          	nop
 114:	01c12403          	lw	s0,28(sp)
 118:	02010113          	addi	sp,sp,32
 11c:	00008067          	ret

00000120 <convertHex>:
 120:	fe010113          	addi	sp,sp,-32
 124:	00812e23          	sw	s0,28(sp)
 128:	02010413          	addi	s0,sp,32
 12c:	fea42623          	sw	a0,-20(s0)
 130:	feb42423          	sw	a1,-24(s0)
 134:	fec42783          	lw	a5,-20(s0)
 138:	00479713          	slli	a4,a5,0x4
 13c:	fe842783          	lw	a5,-24(s0)
 140:	00f707b3          	add	a5,a4,a5
 144:	00078513          	mv	a0,a5
 148:	01c12403          	lw	s0,28(sp)
 14c:	02010113          	addi	sp,sp,32
 150:	00008067          	ret

00000154 <shiftTwice>:
 154:	fe010113          	addi	sp,sp,-32
 158:	00812e23          	sw	s0,28(sp)
 15c:	02010413          	addi	s0,sp,32
 160:	fea42623          	sw	a0,-20(s0)
 164:	feb42423          	sw	a1,-24(s0)
 168:	fec42783          	lw	a5,-20(s0)
 16c:	00879713          	slli	a4,a5,0x8
 170:	fe842783          	lw	a5,-24(s0)
 174:	00f707b3          	add	a5,a4,a5
 178:	00078513          	mv	a0,a5
 17c:	01c12403          	lw	s0,28(sp)
 180:	02010113          	addi	sp,sp,32
 184:	00008067          	ret

00000188 <hex_output>:
 188:	fd010113          	addi	sp,sp,-48
 18c:	02812623          	sw	s0,44(sp)
 190:	03010413          	addi	s0,sp,48
 194:	fca42e23          	sw	a0,-36(s0)
 198:	040007b7          	lui	a5,0x4000
 19c:	08078793          	addi	a5,a5,128 # 4000080 <__sp+0x3ff0080>
 1a0:	fef42623          	sw	a5,-20(s0)
 1a4:	fec42783          	lw	a5,-20(s0)
 1a8:	fdc42703          	lw	a4,-36(s0)
 1ac:	00e7a023          	sw	a4,0(a5)
 1b0:	00000013          	nop
 1b4:	02c12403          	lw	s0,44(sp)
 1b8:	03010113          	addi	sp,sp,48
 1bc:	00008067          	ret

000001c0 <get_formatted_time>:
 1c0:	fd010113          	addi	sp,sp,-48
 1c4:	02112623          	sw	ra,44(sp)
 1c8:	02812423          	sw	s0,40(sp)
 1cc:	02912223          	sw	s1,36(sp)
 1d0:	03010413          	addi	s0,sp,48
 1d4:	fca42e23          	sw	a0,-36(s0)
 1d8:	06400593          	li	a1,100
 1dc:	fdc42503          	lw	a0,-36(s0)
 1e0:	ec5ff0ef          	jal	ra,a4 <rem>
 1e4:	fea42623          	sw	a0,-20(s0)
 1e8:	06400593          	li	a1,100
 1ec:	fdc42503          	lw	a0,-36(s0)
 1f0:	e31ff0ef          	jal	ra,20 <div>
 1f4:	fea42423          	sw	a0,-24(s0)
 1f8:	03c00593          	li	a1,60
 1fc:	fe842503          	lw	a0,-24(s0)
 200:	e21ff0ef          	jal	ra,20 <div>
 204:	fea42223          	sw	a0,-28(s0)
 208:	03c00593          	li	a1,60
 20c:	fe842503          	lw	a0,-24(s0)
 210:	e95ff0ef          	jal	ra,a4 <rem>
 214:	fea42423          	sw	a0,-24(s0)
 218:	00a00593          	li	a1,10
 21c:	fe442503          	lw	a0,-28(s0)
 220:	e01ff0ef          	jal	ra,20 <div>
 224:	00050493          	mv	s1,a0
 228:	00a00593          	li	a1,10
 22c:	fe442503          	lw	a0,-28(s0)
 230:	e75ff0ef          	jal	ra,a4 <rem>
 234:	00050793          	mv	a5,a0
 238:	00078593          	mv	a1,a5
 23c:	00048513          	mv	a0,s1
 240:	ee1ff0ef          	jal	ra,120 <convertHex>
 244:	fea42223          	sw	a0,-28(s0)
 248:	00a00593          	li	a1,10
 24c:	fe842503          	lw	a0,-24(s0)
 250:	dd1ff0ef          	jal	ra,20 <div>
 254:	00050493          	mv	s1,a0
 258:	00a00593          	li	a1,10
 25c:	fe842503          	lw	a0,-24(s0)
 260:	e45ff0ef          	jal	ra,a4 <rem>
 264:	00050793          	mv	a5,a0
 268:	00078593          	mv	a1,a5
 26c:	00048513          	mv	a0,s1
 270:	eb1ff0ef          	jal	ra,120 <convertHex>
 274:	fea42423          	sw	a0,-24(s0)
 278:	00a00593          	li	a1,10
 27c:	fec42503          	lw	a0,-20(s0)
 280:	da1ff0ef          	jal	ra,20 <div>
 284:	00050493          	mv	s1,a0
 288:	00a00593          	li	a1,10
 28c:	fec42503          	lw	a0,-20(s0)
 290:	e15ff0ef          	jal	ra,a4 <rem>
 294:	00050793          	mv	a5,a0
 298:	00078593          	mv	a1,a5
 29c:	00048513          	mv	a0,s1
 2a0:	e81ff0ef          	jal	ra,120 <convertHex>
 2a4:	fea42623          	sw	a0,-20(s0)
 2a8:	fe842583          	lw	a1,-24(s0)
 2ac:	fe442503          	lw	a0,-28(s0)
 2b0:	ea5ff0ef          	jal	ra,154 <shiftTwice>
 2b4:	fea42023          	sw	a0,-32(s0)
 2b8:	fec42583          	lw	a1,-20(s0)
 2bc:	fe042503          	lw	a0,-32(s0)
 2c0:	e95ff0ef          	jal	ra,154 <shiftTwice>
 2c4:	fea42023          	sw	a0,-32(s0)
 2c8:	fe442503          	lw	a0,-28(s0)
 2cc:	e2dff0ef          	jal	ra,f8 <dp>
 2d0:	fe842503          	lw	a0,-24(s0)
 2d4:	e25ff0ef          	jal	ra,f8 <dp>
 2d8:	fec42503          	lw	a0,-20(s0)
 2dc:	e1dff0ef          	jal	ra,f8 <dp>
 2e0:	fe042503          	lw	a0,-32(s0)
 2e4:	e15ff0ef          	jal	ra,f8 <dp>
 2e8:	fe042503          	lw	a0,-32(s0)
 2ec:	e9dff0ef          	jal	ra,188 <hex_output>
 2f0:	fdc42783          	lw	a5,-36(s0)
 2f4:	00078513          	mv	a0,a5
 2f8:	02c12083          	lw	ra,44(sp)
 2fc:	02812403          	lw	s0,40(sp)
 300:	02412483          	lw	s1,36(sp)
 304:	03010113          	addi	sp,sp,48
 308:	00008067          	ret

0000030c <main>:
 30c:	fe010113          	addi	sp,sp,-32
 310:	00112e23          	sw	ra,28(sp)
 314:	00812c23          	sw	s0,24(sp)
 318:	02010413          	addi	s0,sp,32
 31c:	00c00793          	li	a5,12
 320:	fef42623          	sw	a5,-20(s0)
 324:	02200793          	li	a5,34
 328:	fef42423          	sw	a5,-24(s0)
 32c:	d95ff0ef          	jal	ra,c0 <get_time>
 330:	00050793          	mv	a5,a0
 334:	00a00593          	li	a1,10
 338:	00078513          	mv	a0,a5
 33c:	ce5ff0ef          	jal	ra,20 <div>
 340:	fea42223          	sw	a0,-28(s0)
 344:	fe442503          	lw	a0,-28(s0)
 348:	db1ff0ef          	jal	ra,f8 <dp>
 34c:	fe442503          	lw	a0,-28(s0)
 350:	e71ff0ef          	jal	ra,1c0 <get_formatted_time>
 354:	fff00513          	li	a0,-1
 358:	da1ff0ef          	jal	ra,f8 <dp>
 35c:	fd1ff06f          	j	32c <main+0x20>
